; Function Attrs: null_pointer_is_valid sspstrong uwtable
define internal fastcc noundef i32 @dissect_bthci_evt_link_key_notification(ptr noundef %0, ptr noundef %1, ptr noundef %2, i32 %.0.val, i32 %.4.val) unnamed_addr #1 {
  %4 = load i32, ptr @hf_bthci_evt_bd_addr, align 4
  %5 = tail call i32 @dissect_bd_addr(i32 noundef %4, ptr noundef %1, ptr noundef %2, ptr noundef %0, i32 noundef 2, i1 noundef zeroext false, i32 noundef %.0.val, i32 noundef %.4.val, ptr noundef null)
  %6 = load i32, ptr @hf_bthci_evt_link_key, align 4
  %7 = tail call ptr @proto_tree_add_item(ptr noundef %2, i32 noundef %6, ptr noundef %0, i32 noundef %5, i32 noundef 16, i32 noundef 0)
  %8 = add i32 %5, 16
  %9 = load i32, ptr @hf_bthci_evt_key_type, align 4
  %10 = tail call ptr @proto_tree_add_item(ptr noundef %2, i32 noundef %9, ptr noundef %0, i32 noundef %8, i32 noundef 1, i32 noundef -2147483648)
  %11 = add i32 %5, 17
  ret i32 %11
}